target datalayout = "e-m:e-p270:32:32-p271:32:32-p272:64:64-i64:64-i128:128-f80:128-n8:16:32:64-S128"
target triple = "x86_64-pc-linux-gnu"

%"class.cv::MatOp" = type { ptr }
%"class.cv::MatOp_AddEx" = type { %"class.cv::MatOp" }
%"class.cv::MatExpr" = type { ptr, i32, %"class.cv::Mat", %"class.cv::Mat", %"class.cv::Mat", double, double, %"class.cv::Scalar_" }
%"class.cv::Mat" = type { i32, i32, i32, i32, ptr, ptr, ptr, ptr, ptr, ptr, %"struct.cv::MatSize", %"struct.cv::MatStep" }
%"struct.cv::MatSize" = type { ptr }
%"struct.cv::MatStep" = type { ptr, [2 x i64] }
%"class.cv::Scalar_" = type { %"class.cv::Vec" }
%"class.cv::Vec" = type { %"class.cv::Matx" }
%"class.cv::Matx" = type { [4 x double] }
%"class.cv::utils::trace::details::Region" = type <{ ptr, i32, [4 x i8] }>

@_ZN2cvL13g_MatOp_AddExE = internal global %"class.cv::MatOp_AddEx" zeroinitializer, align 8

; Function Attrs: mustprogress nounwind uwtable
define linkonce_odr hidden void @_ZN2cv4MatxIdLi4ELi1EEC2Ev(ptr noundef nonnull align 8 dereferenceable(32) %0) unnamed_addr #4 comdat align 2 {
  %2 = alloca ptr, align 8
  %3 = alloca i32, align 4
  store ptr %0, ptr %2, align 8
  %4 = load ptr, ptr %2, align 8
  store i32 0, ptr %3, align 4
  br label %5

5:                                                ; preds = %13, %1
  %6 = load i32, ptr %3, align 4
  %7 = icmp slt i32 %6, 4
  br i1 %7, label %8, label %16

8:                                                ; preds = %5
  %9 = getelementptr inbounds %"class.cv::Matx", ptr %4, i32 0, i32 0
  %10 = load i32, ptr %3, align 4
  %11 = sext i32 %10 to i64
  %12 = getelementptr inbounds [4 x double], ptr %9, i64 0, i64 %11
  store double 0.000000e+00, ptr %12, align 8
  br label %13

13:                                               ; preds = %8
  %14 = load i32, ptr %3, align 4
  %15 = add nsw i32 %14, 1
  store i32 %15, ptr %3, align 4
  br label %5, !llvm.loop !7

16:                                               ; preds = %5
  ret void
}

; Function Attrs: mustprogress uwtable
define linkonce_odr hidden void @_ZN2cv3VecIdLi4EEC2Ev(ptr noundef nonnull align 8 dereferenceable(32) %0) unnamed_addr #6 comdat align 2 {
  %2 = alloca ptr, align 8
  store ptr %0, ptr %2, align 8
  %3 = load ptr, ptr %2, align 8
  call void @_ZN2cv4MatxIdLi4ELi1EEC2Ev(ptr noundef nonnull align 8 dereferenceable(32) %3)
  ret void
}

; Function Attrs: mustprogress nounwind uwtable
define internal noundef zeroext i1 @_ZN2cveqIdEEbRKNS_7Scalar_IT_EES5_(ptr noundef nonnull align 8 dereferenceable(32) %0, ptr noundef nonnull align 8 dereferenceable(32) %1) #4 {
  %3 = alloca ptr, align 8
  %4 = alloca ptr, align 8
  store ptr %0, ptr %3, align 8
  store ptr %1, ptr %4, align 8
  %5 = load ptr, ptr %3, align 8
  %6 = getelementptr inbounds %"class.cv::Matx", ptr %5, i32 0, i32 0
  %7 = getelementptr inbounds [4 x double], ptr %6, i64 0, i64 0
  %8 = load double, ptr %7, align 8
  %9 = load ptr, ptr %4, align 8
  %10 = getelementptr inbounds %"class.cv::Matx", ptr %9, i32 0, i32 0
  %11 = getelementptr inbounds [4 x double], ptr %10, i64 0, i64 0
  %12 = load double, ptr %11, align 8
  %13 = fcmp oeq double %8, %12
  br i1 %13, label %14, label %44

14:                                               ; preds = %2
  %15 = load ptr, ptr %3, align 8
  %16 = getelementptr inbounds %"class.cv::Matx", ptr %15, i32 0, i32 0
  %17 = getelementptr inbounds [4 x double], ptr %16, i64 0, i64 1
  %18 = load double, ptr %17, align 8
  %19 = load ptr, ptr %4, align 8
  %20 = getelementptr inbounds %"class.cv::Matx", ptr %19, i32 0, i32 0
  %21 = getelementptr inbounds [4 x double], ptr %20, i64 0, i64 1
  %22 = load double, ptr %21, align 8
  %23 = fcmp oeq double %18, %22
  br i1 %23, label %24, label %44

24:                                               ; preds = %14
  %25 = load ptr, ptr %3, align 8
  %26 = getelementptr inbounds %"class.cv::Matx", ptr %25, i32 0, i32 0
  %27 = getelementptr inbounds [4 x double], ptr %26, i64 0, i64 2
  %28 = load double, ptr %27, align 8
  %29 = load ptr, ptr %4, align 8
  %30 = getelementptr inbounds %"class.cv::Matx", ptr %29, i32 0, i32 0
  %31 = getelementptr inbounds [4 x double], ptr %30, i64 0, i64 2
  %32 = load double, ptr %31, align 8
  %33 = fcmp oeq double %28, %32
  br i1 %33, label %34, label %44

34:                                               ; preds = %24
  %35 = load ptr, ptr %3, align 8
  %36 = getelementptr inbounds %"class.cv::Matx", ptr %35, i32 0, i32 0
  %37 = getelementptr inbounds [4 x double], ptr %36, i64 0, i64 3
  %38 = load double, ptr %37, align 8
  %39 = load ptr, ptr %4, align 8
  %40 = getelementptr inbounds %"class.cv::Matx", ptr %39, i32 0, i32 0
  %41 = getelementptr inbounds [4 x double], ptr %40, i64 0, i64 3
  %42 = load double, ptr %41, align 8
  %43 = fcmp oeq double %38, %42
  br label %44

44:                                               ; preds = %34, %24, %14, %2
  %45 = phi i1 [ false, %24 ], [ false, %14 ], [ false, %2 ], [ %43, %34 ]
  ret i1 %45
}

; Function Attrs: mustprogress uwtable
define linkonce_odr hidden void @_ZN2cv7Scalar_IdEC2Ev(ptr noundef nonnull align 8 dereferenceable(32) %0) unnamed_addr #6 comdat align 2 {
  %2 = alloca ptr, align 8
  store ptr %0, ptr %2, align 8
  %3 = load ptr, ptr %2, align 8
  call void @_ZN2cv3VecIdLi4EEC2Ev(ptr noundef nonnull align 8 dereferenceable(32) %3)
  %4 = getelementptr inbounds %"class.cv::Matx", ptr %3, i32 0, i32 0
  %5 = getelementptr inbounds [4 x double], ptr %4, i64 0, i64 3
  store double 0.000000e+00, ptr %5, align 8
  %6 = getelementptr inbounds %"class.cv::Matx", ptr %3, i32 0, i32 0
  %7 = getelementptr inbounds [4 x double], ptr %6, i64 0, i64 2
  store double 0.000000e+00, ptr %7, align 8
  %8 = getelementptr inbounds %"class.cv::Matx", ptr %3, i32 0, i32 0
  %9 = getelementptr inbounds [4 x double], ptr %8, i64 0, i64 1
  store double 0.000000e+00, ptr %9, align 8
  %10 = getelementptr inbounds %"class.cv::Matx", ptr %3, i32 0, i32 0
  %11 = getelementptr inbounds [4 x double], ptr %10, i64 0, i64 0
  store double 0.000000e+00, ptr %11, align 8
  ret void
}

; Function Attrs: mustprogress nounwind uwtable
define internal noundef zeroext i1 @_ZN2cvL7isAddExERKNS_7MatExprE(ptr noundef nonnull align 8 dereferenceable(352) %0) #4 {
  %2 = alloca ptr, align 8
  store ptr %0, ptr %2, align 8
  %3 = load ptr, ptr %2, align 8
  %4 = getelementptr inbounds %"class.cv::MatExpr", ptr %3, i32 0, i32 0
  %5 = load ptr, ptr %4, align 8
  %6 = icmp eq ptr %5, @_ZN2cvL13g_MatOp_AddExE
  ret i1 %6
}

; Function Attrs: mustprogress uwtable
define internal noundef zeroext i1 @_ZN2cvL8isScaledERKNS_7MatExprE(ptr noundef nonnull align 8 dereferenceable(352) %0) #6 {
  %2 = alloca ptr, align 8
  %3 = alloca %"class.cv::Scalar_", align 8
  store ptr %0, ptr %2, align 8
  %4 = load ptr, ptr %2, align 8
  %5 = call noundef zeroext i1 @_ZN2cvL7isAddExERKNS_7MatExprE(ptr noundef nonnull align 8 dereferenceable(352) %4)
  br i1 %5, label %6, label %21

6:                                                ; preds = %1
  %7 = load ptr, ptr %2, align 8
  %8 = getelementptr inbounds %"class.cv::MatExpr", ptr %7, i32 0, i32 3
  %9 = getelementptr inbounds %"class.cv::Mat", ptr %8, i32 0, i32 4
  %10 = load ptr, ptr %9, align 8
  %11 = icmp ne ptr %10, null
  br i1 %11, label %12, label %17

12:                                               ; preds = %6
  %13 = load ptr, ptr %2, align 8
  %14 = getelementptr inbounds %"class.cv::MatExpr", ptr %13, i32 0, i32 6
  %15 = load double, ptr %14, align 8
  %16 = fcmp oeq double %15, 0.000000e+00
  br i1 %16, label %17, label %21

17:                                               ; preds = %12, %6
  %18 = load ptr, ptr %2, align 8
  %19 = getelementptr inbounds %"class.cv::MatExpr", ptr %18, i32 0, i32 7
  call void @_ZN2cv7Scalar_IdEC2Ev(ptr noundef nonnull align 8 dereferenceable(32) %3)
  %20 = call noundef zeroext i1 @_ZN2cveqIdEEbRKNS_7Scalar_IT_EES5_(ptr noundef nonnull align 8 dereferenceable(32) %19, ptr noundef nonnull align 8 dereferenceable(32) %3)
  br label %21

21:                                               ; preds = %17, %12, %1
  %22 = phi i1 [ false, %12 ], [ false, %1 ], [ %20, %17 ]
  ret i1 %22
}

; Function Attrs: mustprogress uwtable
define hidden void @_ZNK2cv11MatOp_AddEx6divideEdRKNS_7MatExprERS1_(ptr noundef nonnull align 8 dereferenceable(8) %0, double noundef %1, ptr noundef nonnull align 8 dereferenceable(352) %2, ptr noundef nonnull align 8 dereferenceable(352) %3) unnamed_addr #6 align 2 personality ptr @__gxx_personality_v0 {
  %5 = alloca ptr, align 8
  %6 = alloca double, align 8
  %7 = alloca ptr, align 8
  %8 = alloca ptr, align 8
  %9 = alloca %"class.cv::utils::trace::details::Region", align 8
  %10 = alloca ptr, align 8
  %11 = alloca i32, align 4
  %12 = alloca %"class.cv::Mat", align 8
  store ptr %0, ptr %5, align 8
  store double %1, ptr %6, align 8
  store ptr %2, ptr %7, align 8
  store ptr %3, ptr %8, align 8
  %13 = load ptr, ptr %5, align 8
  call void @_ZN2cv5utils5trace7details6RegionC1ERKNS3_21LocationStaticStorageE(ptr noundef nonnull align 8 dereferenceable(12) %9, ptr noundef nonnull align 8 dereferenceable(32) @_ZZNK2cv11MatOp_AddEx6divideEdRKNS_7MatExprERS1_E26__cv_trace_location_fn1384)
  %14 = load ptr, ptr %7, align 8
  %15 = invoke noundef zeroext i1 @_ZN2cvL8isScaledERKNS_7MatExprE(ptr noundef nonnull align 8 dereferenceable(352) %14)
          to label %16 unwind label %27

16:                                               ; preds = %4
  br i1 %15, label %17, label %35

17:                                               ; preds = %16
  %18 = load ptr, ptr %8, align 8
  %19 = load ptr, ptr %7, align 8
  %20 = getelementptr inbounds %"class.cv::MatExpr", ptr %19, i32 0, i32 2
  call void @_ZN2cv3MatC1Ev(ptr noundef nonnull align 8 dereferenceable(96) %12) #3
  %21 = load double, ptr %6, align 8
  %22 = load ptr, ptr %7, align 8
  %23 = getelementptr inbounds %"class.cv::MatExpr", ptr %22, i32 0, i32 5
  %24 = load double, ptr %23, align 8
  %25 = fdiv double %21, %24
  invoke void @_ZN2cv9MatOp_Bin8makeExprERNS_7MatExprEcRKNS_3MatES5_d(ptr noundef nonnull align 8 dereferenceable(352) %18, i8 noundef signext 47, ptr noundef nonnull align 8 dereferenceable(96) %20, ptr noundef nonnull align 8 dereferenceable(96) %12, double noundef %25)
          to label %26 unwind label %31

26:                                               ; preds = %17
  call void @_ZN2cv3MatD1Ev(ptr noundef nonnull align 8 dereferenceable(96) %12) #3
  br label %40

27:                                               ; preds = %35, %4
  %28 = landingpad { ptr, i32 }
          cleanup
  %29 = extractvalue { ptr, i32 } %28, 0
  store ptr %29, ptr %10, align 8
  %30 = extractvalue { ptr, i32 } %28, 1
  store i32 %30, ptr %11, align 4
  br label %41

31:                                               ; preds = %17
  %32 = landingpad { ptr, i32 }
          cleanup
  %33 = extractvalue { ptr, i32 } %32, 0
  store ptr %33, ptr %10, align 8
  %34 = extractvalue { ptr, i32 } %32, 1
  store i32 %34, ptr %11, align 4
  call void @_ZN2cv3MatD1Ev(ptr noundef nonnull align 8 dereferenceable(96) %12) #3
  br label %41

35:                                               ; preds = %16
  %36 = load double, ptr %6, align 8
  %37 = load ptr, ptr %7, align 8
  %38 = load ptr, ptr %8, align 8
  invoke void @_ZNK2cv5MatOp6divideEdRKNS_7MatExprERS1_(ptr noundef nonnull align 8 dereferenceable(8) %13, double noundef %36, ptr noundef nonnull align 8 dereferenceable(352) %37, ptr noundef nonnull align 8 dereferenceable(352) %38)
          to label %39 unwind label %27

39:                                               ; preds = %35
  br label %40

40:                                               ; preds = %39, %26
  call void @_ZN2cv5utils5trace7details6RegionD2Ev(ptr noundef nonnull align 8 dereferenceable(12) %9) #3
  ret void

41:                                               ; preds = %31, %27
  call void @_ZN2cv5utils5trace7details6RegionD2Ev(ptr noundef nonnull align 8 dereferenceable(12) %9) #3
  br label %42

42:                                               ; preds = %41
  %43 = load ptr, ptr %10, align 8
  %44 = load i32, ptr %11, align 4
  %45 = insertvalue { ptr, i32 } poison, ptr %43, 0
  %46 = insertvalue { ptr, i32 } %45, i32 %44, 1
  resume { ptr, i32 } %46
}