; Function Attrs: mustprogress uwtable
define hidden void @_ZNK2cv11MatOp_AddEx6divideEdRKNS_7MatExprERS1_(ptr nocapture nonnull readnone align 8 %0, double noundef %1, ptr noundef nonnull align 8 dereferenceable(352) %2, ptr noundef nonnull align 8 dereferenceable(352) %3) unnamed_addr #8 align 2 personality ptr @__gxx_personality_v0 {
  %5 = alloca %"class.cv::utils::trace::details::Region", align 8
  %6 = alloca %"class.cv::Mat", align 8
  call void @_ZN2cv5utils5trace7details6RegionC1ERKNS3_21LocationStaticStorageE(ptr noundef nonnull align 8 dereferenceable(12) %5, ptr noundef nonnull align 8 dereferenceable(32) @_ZZNK2cv11MatOp_AddEx6divideEdRKNS_7MatExprERS1_E26__cv_trace_location_fn1384)
  %.val.i = load ptr, ptr %2, align 8
  %7 = icmp eq ptr %.val.i, @_ZN2cvL13g_MatOp_AddExE
  br i1 %7, label %8, label %_ZN2cvL8isScaledERKNS_7MatExprE.exit.thread

8:                                                ; preds = %4
  %9 = getelementptr inbounds i8, ptr %2, i64 128
  %10 = load ptr, ptr %9, align 8
  %.not.i = icmp eq ptr %10, null
  %11 = getelementptr inbounds i8, ptr %2, i64 312
  %12 = load double, ptr %11, align 8
  %13 = fcmp oeq double %12, 0.000000e+00
  %or.cond.i = select i1 %.not.i, i1 true, i1 %13
  br i1 %or.cond.i, label %14, label %_ZN2cvL8isScaledERKNS_7MatExprE.exit.thread

14:                                               ; preds = %8
  %15 = getelementptr inbounds i8, ptr %2, i64 320
  %16 = load <4 x double>, ptr %15, align 8
  %.fr = freeze <4 x double> %16
  %17 = fcmp une <4 x double> %.fr, zeroinitializer
  %18 = bitcast <4 x i1> %17 to i4
  %19 = icmp eq i4 %18, 0
  br i1 %19, label %20, label %_ZN2cvL8isScaledERKNS_7MatExprE.exit.thread

20:                                               ; preds = %14
  %21 = getelementptr inbounds i8, ptr %2, i64 16
  call void @_ZN2cv3MatC1Ev(ptr noundef nonnull align 8 dereferenceable(96) %6) #21
  %22 = getelementptr inbounds i8, ptr %2, i64 304
  %23 = load double, ptr %22, align 8
  %24 = fdiv double %1, %23
  invoke void @_ZN2cv9MatOp_Bin8makeExprERNS_7MatExprEcRKNS_3MatES5_d(ptr noundef nonnull align 8 dereferenceable(352) %3, i8 noundef signext 47, ptr noundef nonnull align 8 dereferenceable(96) %21, ptr noundef nonnull align 8 dereferenceable(96) %6, double noundef %24)
          to label %25 unwind label %28

25:                                               ; preds = %20
  call void @_ZN2cv3MatD1Ev(ptr noundef nonnull align 8 dereferenceable(96) %6) #21
  br label %30

26:                                               ; preds = %_ZN2cvL8isScaledERKNS_7MatExprE.exit.thread
  %27 = landingpad { ptr, i32 }
          cleanup
  br label %37

28:                                               ; preds = %20
  %29 = landingpad { ptr, i32 }
          cleanup
  call void @_ZN2cv3MatD1Ev(ptr noundef nonnull align 8 dereferenceable(96) %6) #21
  br label %37

_ZN2cvL8isScaledERKNS_7MatExprE.exit.thread:      ; preds = %14, %8, %4
  invoke void @_ZNK2cv5MatOp6divideEdRKNS_7MatExprERS1_(ptr nonnull align 8 poison, double noundef %1, ptr noundef nonnull align 8 dereferenceable(352) %2, ptr noundef nonnull align 8 dereferenceable(352) %3)
          to label %30 unwind label %26

30:                                               ; preds = %_ZN2cvL8isScaledERKNS_7MatExprE.exit.thread, %25
  %31 = getelementptr inbounds i8, ptr %5, i64 8
  %32 = load i32, ptr %31, align 8
  %.not.i12 = icmp eq i32 %32, 0
  br i1 %.not.i12, label %_ZN2cv5utils5trace7details6RegionD2Ev.exit, label %33

33:                                               ; preds = %30
  invoke void @_ZN2cv5utils5trace7details6Region7destroyEv(ptr noundef nonnull align 8 dereferenceable(12) %5)
          to label %_ZN2cv5utils5trace7details6RegionD2Ev.exit unwind label %34

34:                                               ; preds = %33
  %35 = landingpad { ptr, i32 }
          catch ptr null
  %36 = extractvalue { ptr, i32 } %35, 0
  call void @__clang_call_terminate(ptr %36) #20
  unreachable

_ZN2cv5utils5trace7details6RegionD2Ev.exit:       ; preds = %30, %33
  ret void

37:                                               ; preds = %28, %26
  %.pn = phi { ptr, i32 } [ %29, %28 ], [ %27, %26 ]
  call void @_ZN2cv5utils5trace7details6RegionD2Ev(ptr noundef nonnull align 8 dereferenceable(12) %5) #21
  resume { ptr, i32 } %.pn
}